; ModuleID = '2/180.c'
source_filename = "2/180.c"
target datalayout = "e-m:e-p270:32:32-p271:32:32-p272:64:64-i64:64-f80:128-n8:16:32:64-S128"
target triple = "x86_64-pc-linux-gnu"

%struct.book = type { i32, [26 x i8] }

@.str = private unnamed_addr constant [3 x i8] c"%d\00", align 1
@.str.1 = private unnamed_addr constant [6 x i8] c"%d %s\00", align 1
@.str.2 = private unnamed_addr constant [3 x i8] c"%c\00", align 1
@.str.3 = private unnamed_addr constant [2 x i8] c"\0A\00", align 1
@.str.4 = private unnamed_addr constant [4 x i8] c"%d\0A\00", align 1

; Function Attrs: noinline nounwind uwtable
define dso_local void @main() #0 {
  %1 = alloca i32*, align 8
  %2 = alloca [999 x %struct.book], align 16
  %3 = alloca i32, align 4
  %4 = alloca i32, align 4
  %5 = alloca i32, align 4
  %6 = alloca i32, align 4
  %7 = alloca i32, align 4
  %8 = alloca i32, align 4
  %9 = alloca i8, align 1
  %10 = call noalias i8* @malloc(i64 104) #3
  %11 = bitcast i8* %10 to i32*
  store i32* %11, i32** %1, align 8
  store i32 0, i32* %7, align 4
  store i32 0, i32* %6, align 4
  br label %12

12:                                               ; preds = %20, %0
  %13 = load i32, i32* %6, align 4
  %14 = icmp slt i32 %13, 26
  br i1 %14, label %15, label %23

15:                                               ; preds = %12
  %16 = load i32*, i32** %1, align 8
  %17 = load i32, i32* %6, align 4
  %18 = sext i32 %17 to i64
  %19 = getelementptr inbounds i32, i32* %16, i64 %18
  store i32 0, i32* %19, align 4
  br label %20

20:                                               ; preds = %15
  %21 = load i32, i32* %6, align 4
  %22 = add nsw i32 %21, 1
  store i32 %22, i32* %6, align 4
  br label %12

23:                                               ; preds = %12
  %24 = call i32 (i8*, ...) @__isoc99_scanf(i8* getelementptr inbounds ([3 x i8], [3 x i8]* @.str, i64 0, i64 0), i32* %3)
  store i32 0, i32* %4, align 4
  br label %25

25:                                               ; preds = %71, %23
  %26 = load i32, i32* %4, align 4
  %27 = load i32, i32* %3, align 4
  %28 = icmp slt i32 %26, %27
  br i1 %28, label %29, label %74

29:                                               ; preds = %25
  %30 = load i32, i32* %4, align 4
  %31 = sext i32 %30 to i64
  %32 = getelementptr inbounds [999 x %struct.book], [999 x %struct.book]* %2, i64 0, i64 %31
  %33 = getelementptr inbounds %struct.book, %struct.book* %32, i32 0, i32 0
  %34 = load i32, i32* %4, align 4
  %35 = sext i32 %34 to i64
  %36 = getelementptr inbounds [999 x %struct.book], [999 x %struct.book]* %2, i64 0, i64 %35
  %37 = getelementptr inbounds %struct.book, %struct.book* %36, i32 0, i32 1
  %38 = getelementptr inbounds [26 x i8], [26 x i8]* %37, i64 0, i64 0
  %39 = call i32 (i8*, ...) @__isoc99_scanf(i8* getelementptr inbounds ([6 x i8], [6 x i8]* @.str.1, i64 0, i64 0), i32* %33, i8* %38)
  store i32 0, i32* %5, align 4
  br label %40

40:                                               ; preds = %67, %29
  %41 = load i32, i32* %4, align 4
  %42 = sext i32 %41 to i64
  %43 = getelementptr inbounds [999 x %struct.book], [999 x %struct.book]* %2, i64 0, i64 %42
  %44 = getelementptr inbounds %struct.book, %struct.book* %43, i32 0, i32 1
  %45 = load i32, i32* %5, align 4
  %46 = sext i32 %45 to i64
  %47 = getelementptr inbounds [26 x i8], [26 x i8]* %44, i64 0, i64 %46
  %48 = load i8, i8* %47, align 1
  %49 = sext i8 %48 to i32
  %50 = icmp ne i32 %49, 0
  br i1 %50, label %51, label %70

51:                                               ; preds = %40
  %52 = load i32*, i32** %1, align 8
  %53 = load i32, i32* %4, align 4
  %54 = sext i32 %53 to i64
  %55 = getelementptr inbounds [999 x %struct.book], [999 x %struct.book]* %2, i64 0, i64 %54
  %56 = getelementptr inbounds %struct.book, %struct.book* %55, i32 0, i32 1
  %57 = load i32, i32* %5, align 4
  %58 = sext i32 %57 to i64
  %59 = getelementptr inbounds [26 x i8], [26 x i8]* %56, i64 0, i64 %58
  %60 = load i8, i8* %59, align 1
  %61 = sext i8 %60 to i32
  %62 = sub nsw i32 %61, 65
  %63 = sext i32 %62 to i64
  %64 = getelementptr inbounds i32, i32* %52, i64 %63
  %65 = load i32, i32* %64, align 4
  %66 = add nsw i32 %65, 1
  store i32 %66, i32* %64, align 4
  br label %67

67:                                               ; preds = %51
  %68 = load i32, i32* %5, align 4
  %69 = add nsw i32 %68, 1
  store i32 %69, i32* %5, align 4
  br label %40

70:                                               ; preds = %40
  br label %71

71:                                               ; preds = %70
  %72 = load i32, i32* %4, align 4
  %73 = add nsw i32 %72, 1
  store i32 %73, i32* %4, align 4
  br label %25

74:                                               ; preds = %25
  store i32 0, i32* %8, align 4
  br label %75

75:                                               ; preds = %96, %74
  %76 = load i32, i32* %8, align 4
  %77 = icmp slt i32 %76, 26
  br i1 %77, label %78, label %99

78:                                               ; preds = %75
  %79 = load i32, i32* %7, align 4
  %80 = load i32*, i32** %1, align 8
  %81 = load i32, i32* %8, align 4
  %82 = sext i32 %81 to i64
  %83 = getelementptr inbounds i32, i32* %80, i64 %82
  %84 = load i32, i32* %83, align 4
  %85 = icmp sgt i32 %79, %84
  br i1 %85, label %86, label %88

86:                                               ; preds = %78
  %87 = load i32, i32* %7, align 4
  br label %94

88:                                               ; preds = %78
  %89 = load i32*, i32** %1, align 8
  %90 = load i32, i32* %8, align 4
  %91 = sext i32 %90 to i64
  %92 = getelementptr inbounds i32, i32* %89, i64 %91
  %93 = load i32, i32* %92, align 4
  br label %94

94:                                               ; preds = %88, %86
  %95 = phi i32 [ %87, %86 ], [ %93, %88 ]
  store i32 %95, i32* %7, align 4
  br label %96

96:                                               ; preds = %94
  %97 = load i32, i32* %8, align 4
  %98 = add nsw i32 %97, 1
  store i32 %98, i32* %8, align 4
  br label %75

99:                                               ; preds = %75
  store i32 0, i32* %8, align 4
  br label %100

100:                                              ; preds = %121, %99
  %101 = load i32, i32* %8, align 4
  %102 = icmp slt i32 %101, 26
  br i1 %102, label %103, label %124

103:                                              ; preds = %100
  %104 = load i32*, i32** %1, align 8
  %105 = load i32, i32* %8, align 4
  %106 = sext i32 %105 to i64
  %107 = getelementptr inbounds i32, i32* %104, i64 %106
  %108 = load i32, i32* %107, align 4
  %109 = load i32, i32* %7, align 4
  %110 = icmp eq i32 %108, %109
  br i1 %110, label %111, label %120

111:                                              ; preds = %103
  %112 = load i32, i32* %8, align 4
  %113 = add nsw i32 65, %112
  %114 = call i32 (i8*, ...) @printf(i8* getelementptr inbounds ([3 x i8], [3 x i8]* @.str.2, i64 0, i64 0), i32 %113)
  %115 = load i32, i32* %8, align 4
  %116 = trunc i32 %115 to i8
  store i8 %116, i8* %9, align 1
  %117 = call i32 (i8*, ...) @printf(i8* getelementptr inbounds ([2 x i8], [2 x i8]* @.str.3, i64 0, i64 0))
  %118 = load i32, i32* %7, align 4
  %119 = call i32 (i8*, ...) @printf(i8* getelementptr inbounds ([4 x i8], [4 x i8]* @.str.4, i64 0, i64 0), i32 %118)
  br label %120

120:                                              ; preds = %111, %103
  br label %121

121:                                              ; preds = %120
  %122 = load i32, i32* %8, align 4
  %123 = add nsw i32 %122, 1
  store i32 %123, i32* %8, align 4
  br label %100

124:                                              ; preds = %100
  store i32 0, i32* %4, align 4
  br label %125

125:                                              ; preds = %167, %124
  %126 = load i32, i32* %4, align 4
  %127 = load i32, i32* %3, align 4
  %128 = icmp slt i32 %126, %127
  br i1 %128, label %129, label %170

129:                                              ; preds = %125
  store i32 0, i32* %5, align 4
  br label %130

130:                                              ; preds = %163, %129
  %131 = load i32, i32* %4, align 4
  %132 = sext i32 %131 to i64
  %133 = getelementptr inbounds [999 x %struct.book], [999 x %struct.book]* %2, i64 0, i64 %132
  %134 = getelementptr inbounds %struct.book, %struct.book* %133, i32 0, i32 1
  %135 = load i32, i32* %5, align 4
  %136 = sext i32 %135 to i64
  %137 = getelementptr inbounds [26 x i8], [26 x i8]* %134, i64 0, i64 %136
  %138 = load i8, i8* %137, align 1
  %139 = sext i8 %138 to i32
  %140 = icmp ne i32 %139, 0
  br i1 %140, label %141, label %166

141:                                              ; preds = %130
  %142 = load i32, i32* %4, align 4
  %143 = sext i32 %142 to i64
  %144 = getelementptr inbounds [999 x %struct.book], [999 x %struct.book]* %2, i64 0, i64 %143
  %145 = getelementptr inbounds %struct.book, %struct.book* %144, i32 0, i32 1
  %146 = load i32, i32* %5, align 4
  %147 = sext i32 %146 to i64
  %148 = getelementptr inbounds [26 x i8], [26 x i8]* %145, i64 0, i64 %147
  %149 = load i8, i8* %148, align 1
  %150 = sext i8 %149 to i32
  %151 = sub nsw i32 %150, 65
  %152 = load i8, i8* %9, align 1
  %153 = sext i8 %152 to i32
  %154 = icmp eq i32 %151, %153
  br i1 %154, label %155, label %162

155:                                              ; preds = %141
  %156 = load i32, i32* %4, align 4
  %157 = sext i32 %156 to i64
  %158 = getelementptr inbounds [999 x %struct.book], [999 x %struct.book]* %2, i64 0, i64 %157
  %159 = getelementptr inbounds %struct.book, %struct.book* %158, i32 0, i32 0
  %160 = load i32, i32* %159, align 16
  %161 = call i32 (i8*, ...) @printf(i8* getelementptr inbounds ([4 x i8], [4 x i8]* @.str.4, i64 0, i64 0), i32 %160)
  br label %162

162:                                              ; preds = %155, %141
  br label %163

163:                                              ; preds = %162
  %164 = load i32, i32* %5, align 4
  %165 = add nsw i32 %164, 1
  store i32 %165, i32* %5, align 4
  br label %130

166:                                              ; preds = %130
  br label %167

167:                                              ; preds = %166
  %168 = load i32, i32* %4, align 4
  %169 = add nsw i32 %168, 1
  store i32 %169, i32* %4, align 4
  br label %125

170:                                              ; preds = %125
  ret void
}

; Function Attrs: nounwind
declare dso_local noalias i8* @malloc(i64) #1

declare dso_local i32 @__isoc99_scanf(i8*, ...) #2

declare dso_local i32 @printf(i8*, ...) #2


!llvm.module.flags = !{!0}
!llvm.ident = !{!1}

!0 = !{i32 1, !"wchar_size", i32 4}
!1 = !{!"clang version 10.0.0-4ubuntu1 "}
